Certificate:
    Data:
        Version: 3 (0x2)
        Serial Number: 45 (0x2d)
        Signature Algorithm: sha256WithRSAEncryption
        Issuer: C=US, O=Google, OU=Enterprise, CN=Enterprise Subordinate CA
        Validity
            Not Before: Oct 14 10:11:23 2022 GMT
            Not After : Jan 21 10:11:23 2025 GMT
        Subject: C=US, O=Google, OU=Enterprise, CN=localhost.esodemoapp2.com
        Subject Public Key Info:
            Public Key Algorithm: rsaEncryption
                Public-Key: (2048 bit)
                Modulus:
                    00:ad:66:f1:3c:a8:24:42:3f:76:28:38:3a:a8:59:
                    e7:43:2d:dc:1a:25:c2:ca:0e:ad:e6:cf:78:bf:24:
                    7c:d3:3c:f7:19:0c:e4:2e:42:a5:5b:4c:40:1b:4b:
                    f1:f9:c3:2c:b9:5a:a4:86:16:b1:85:38:41:31:3d:
                    0a:3a:6e:52:7b:72:f7:50:9b:07:a0:1e:33:3c:17:
                    8c:87:6f:5b:03:4f:23:81:c2:55:4f:a0:f2:18:a4:
                    67:17:b9:43:5b:73:4a:f8:2d:60:8c:e4:2d:97:b9:
                    d2:f2:7f:3f:d4:54:de:58:8b:9c:c9:46:97:e2:49:
                    7b:a6:20:87:b9:87:d2:8b:f7:e9:a8:55:46:47:44:
                    dc:c2:e2:4f:4e:58:10:4b:55:b8:87:2f:60:c9:96:
                    76:8b:bb:93:1e:ab:77:25:48:1d:9e:09:10:e0:e4:
                    b3:72:08:ce:f1:fd:b7:55:bf:55:57:a9:ef:41:57:
                    4b:75:7a:dc:5c:df:11:8c:a7:b6:cf:3f:f3:6a:c8:
                    1a:63:f1:75:90:ba:aa:72:f0:99:68:0e:b8:ca:bb:
                    15:22:60:89:e4:96:66:3f:e1:15:41:7d:2e:73:ac:
                    8e:b9:76:3c:3a:db:13:89:48:4a:f0:f7:16:dd:93:
                    fb:ee:df:61:14:26:5d:1a:f4:1c:c0:df:6f:b4:f8:
                    87:b9
                Exponent: 65537 (0x10001)
        X509v3 extensions:
            X509v3 Key Usage: critical
                Digital Signature
            X509v3 Basic Constraints: 
                CA:FALSE
            X509v3 Extended Key Usage: 
                TLS Web Server Authentication
            X509v3 Subject Key Identifier: 
                D5:39:91:13:71:6F:48:46:C7:F2:A7:E2:BA:4F:2B:8B:3F:39:82:A1
            X509v3 Authority Key Identifier: 
                B7:BA:B0:02:A1:E7:BE:34:C6:C1:05:5C:66:78:E5:BB:53:5D:A1:54
            Authority Information Access: 
                CA Issuers - URI:http://pki.esodemoapp2.com/ca/tls-ca.cer
            X509v3 CRL Distribution Points: 
                Full Name:
                  URI:http://pki.esodemoapp2.com/ca/tls-ca.crl
            X509v3 Subject Alternative Name: 
                DNS:localhost.esodemoapp2.com
    Signature Algorithm: sha256WithRSAEncryption
    Signature Value:
        ae:d4:b9:69:12:24:44:12:bf:4d:4c:da:02:7b:21:df:44:ad:
        cb:97:95:6f:c7:2a:05:8d:c1:56:88:39:6e:02:29:39:b1:25:
        e1:c1:21:ae:a1:03:52:04:97:1d:31:f2:ae:91:02:f2:b1:11:
        10:fc:81:b9:a9:3c:1e:88:3c:7c:db:bc:87:96:21:43:17:75:
        3c:ff:dd:ca:17:89:d1:98:bf:b7:ba:3a:d3:26:8b:1a:20:15:
        28:f9:5b:28:76:d5:56:69:12:de:46:83:13:e3:37:f6:b7:45:
        20:c3:a8:e0:f5:bb:c5:11:19:23:3c:29:27:c1:df:b9:c0:67:
        d9:4d:b5:2e:72:da:62:82:c3:96:ff:43:34:61:1d:2b:3f:1d:
        d6:72:e8:f9:43:a8:d4:48:10:0d:67:ca:40:a2:f9:d6:f2:19:
        62:f3:75:85:c4:c5:7d:22:83:fc:9f:85:0e:a0:f7:47:14:8e:
        19:60:ce:b5:c8:f3:65:55:83:fd:d6:25:d1:c5:51:ed:78:ea:
        27:cd:67:c1:47:57:f5:61:f0:11:c1:f7:f3:1a:0b:d6:79:b0:
        61:a4:a9:f2:a2:1f:1e:64:cb:e4:72:5a:f9:55:35:b0:b1:e7:
        52:a8:5a:e0:45:42:13:ea:e2:78:2c:93:66:bf:83:95:eb:16:
        a5:48:f4:41
-----BEGIN CERTIFICATE-----
MIIERjCCAy6gAwIBAgIBLTANBgkqhkiG9w0BAQsFADBXMQswCQYDVQQGEwJVUzEP
MA0GA1UECgwGR29vZ2xlMRMwEQYDVQQLDApFbnRlcnByaXNlMSIwIAYDVQQDDBlF
bnRlcnByaXNlIFN1Ym9yZGluYXRlIENBMB4XDTIyMTAxNDEwMTEyM1oXDTI1MDEy
MTEwMTEyM1owVzELMAkGA1UEBhMCVVMxDzANBgNVBAoMBkdvb2dsZTETMBEGA1UE
CwwKRW50ZXJwcmlzZTEiMCAGA1UEAwwZbG9jYWxob3N0LmVzb2RlbW9hcHAyLmNv
bTCCASIwDQYJKoZIhvcNAQEBBQADggEPADCCAQoCggEBAK1m8TyoJEI/dig4OqhZ
50Mt3BolwsoOrebPeL8kfNM89xkM5C5CpVtMQBtL8fnDLLlapIYWsYU4QTE9Cjpu
Unty91CbB6AeMzwXjIdvWwNPI4HCVU+g8hikZxe5Q1tzSvgtYIzkLZe50vJ/P9RU
3liLnMlGl+JJe6Ygh7mH0ov36ahVRkdE3MLiT05YEEtVuIcvYMmWdou7kx6rdyVI
HZ4JEODks3IIzvH9t1W/VVep70FXS3V63FzfEYynts8/82rIGmPxdZC6qnLwmWgO
uMq7FSJgieSWZj/hFUF9LnOsjrl2PDrbE4lISvD3Ft2T++7fYRQmXRr0HMDfb7T4
h7kCAwEAAaOCARswggEXMA4GA1UdDwEB/wQEAwIHgDAJBgNVHRMEAjAAMBMGA1Ud
JQQMMAoGCCsGAQUFBwMBMB0GA1UdDgQWBBTVOZETcW9IRsfyp+K6TyuLPzmCoTAf
BgNVHSMEGDAWgBS3urACoee+NMbBBVxmeOW7U12hVDBEBggrBgEFBQcBAQQ4MDYw
NAYIKwYBBQUHMAKGKGh0dHA6Ly9wa2kuZXNvZGVtb2FwcDIuY29tL2NhL3Rscy1j
YS5jZXIwOQYDVR0fBDIwMDAuoCygKoYoaHR0cDovL3BraS5lc29kZW1vYXBwMi5j
b20vY2EvdGxzLWNhLmNybDAkBgNVHREEHTAbghlsb2NhbGhvc3QuZXNvZGVtb2Fw
cDIuY29tMA0GCSqGSIb3DQEBCwUAA4IBAQCu1LlpEiREEr9NTNoCeyHfRK3Ll5Vv
xyoFjcFWiDluAik5sSXhwSGuoQNSBJcdMfKukQLysREQ/IG5qTweiDx827yHliFD
F3U8/93KF4nRmL+3ujrTJosaIBUo+VsodtVWaRLeRoMT4zf2t0Ugw6jg9bvFERkj
PCknwd+5wGfZTbUuctpigsOW/0M0YR0rPx3Wcuj5Q6jUSBANZ8pAovnW8hli83WF
xMV9IoP8n4UOoPdHFI4ZYM61yPNlVYP91iXRxVHteOonzWfBR1f1YfARwffzGgvW
ebBhpKnyoh8eZMvkclr5VTWwsedSqFrgRUIT6uJ4LJNmv4OV6xalSPRB
-----END CERTIFICATE-----
