Certificate:
    Data:
        Version: 3 (0x2)
        Serial Number: 62 (0x3e)
        Signature Algorithm: sha1WithRSAEncryption
        Issuer: C=US, O=Google, OU=Enterprise, CN=Enterprise Subordinate CA
        Validity
            Not Before: Dec 14 20:20:37 2021 GMT
            Not After : Jun  6 20:20:37 2027 GMT
        Subject: C=US, O=Google, OU=Enterprise, CN=localhost.esodemoapp2.com
        Subject Public Key Info:
            Public Key Algorithm: rsaEncryption
                RSA Public-Key: (2048 bit)
                Modulus:
                    00:bf:15:df:dd:65:de:62:18:70:78:0b:6f:64:e4:
                    42:9b:2d:09:a6:8c:b1:86:e8:29:e4:10:a0:f6:16:
                    46:ff:3c:12:16:26:8b:cd:ec:19:33:93:3e:fa:95:
                    55:61:63:48:3c:cb:0c:3c:c2:43:b8:e5:5f:4b:38:
                    a0:7e:b0:43:2e:00:43:3e:c8:67:35:ec:f3:5b:81:
                    e4:8d:0b:b3:ad:d7:f4:cf:a5:8d:ca:0a:06:63:44:
                    19:fa:5a:d9:8a:ed:13:fa:c0:16:38:0f:1c:3a:a4:
                    3e:89:03:f5:1a:d1:8e:ad:29:51:27:db:9f:a8:f7:
                    c5:e7:60:89:63:6d:4e:65:85:03:54:f2:84:37:79:
                    8d:9a:aa:07:ec:ce:e8:d5:bb:53:6e:63:5a:ed:18:
                    00:43:d0:d1:b3:e2:f7:3e:2c:e9:94:76:d9:d3:89:
                    df:5b:a8:8d:e1:25:30:0d:2a:b5:22:5e:ec:cf:1d:
                    67:3f:be:bd:97:06:7e:da:40:8c:63:34:73:86:cd:
                    37:c7:84:b0:59:c2:c6:21:d5:a9:36:08:3e:96:7a:
                    47:fd:51:3b:10:b8:3d:2e:4a:cf:ea:35:a7:94:27:
                    0d:61:59:19:25:48:25:be:37:18:df:92:e1:dd:7d:
                    e0:3f:96:66:31:b6:d9:72:60:c7:9f:43:61:3b:4b:
                    32:1f
                Exponent: 65537 (0x10001)
        X509v3 extensions:
            X509v3 Key Usage: critical
                Digital Signature
            X509v3 Basic Constraints: 
                CA:FALSE
            X509v3 Extended Key Usage: 
                TLS Web Server Authentication
            X509v3 Subject Key Identifier: 
                E1:A1:68:E6:12:BC:3A:02:83:89:D1:44:F7:D1:0B:27:9F:FD:98:C8
            X509v3 Authority Key Identifier: 
                keyid:BF:E1:1C:F0:22:48:8F:FC:3B:CF:5D:D9:ED:AE:88:70:21:DF:DD:86

            Authority Information Access: 
                CA Issuers - URI:http://pki.esodemoapp2.com/ca/tls-ca.cer

            X509v3 CRL Distribution Points: 

                Full Name:
                  URI:http://pki.esodemoapp2.com/ca/tls-ca.crl

            X509v3 Subject Alternative Name: 
                DNS:localhost.esodemoapp2.com
    Signature Algorithm: sha1WithRSAEncryption
         96:27:0f:09:03:6b:f9:5e:a9:81:d7:95:1f:be:f4:a4:00:cd:
         3a:9f:e7:54:06:43:60:2d:74:3a:59:5b:d3:f3:65:f5:39:d5:
         3a:3c:6e:c2:6f:0b:16:3e:88:b7:6b:9e:3e:1d:ee:0a:40:d7:
         8b:2a:1f:a2:3d:14:d3:e7:a3:7e:4d:bd:b2:e5:97:62:d8:4b:
         66:d3:9d:ce:d6:10:f0:fa:72:02:03:70:4f:87:e2:4f:1a:2b:
         43:9f:7f:92:24:f7:a1:ff:9d:5c:8c:31:96:5f:7c:ae:b4:26:
         42:13:4f:0c:8c:19:09:c2:f8:ef:c7:bd:34:51:23:0c:58:56:
         b6:46:ef:8e:32:cc:b9:09:36:f7:28:78:b7:46:67:bb:95:83:
         74:19:e3:3d:05:7f:d0:55:54:bf:6b:77:6a:1e:2f:69:64:64:
         23:54:06:48:c4:57:d4:ba:25:da:72:08:23:e3:39:66:f4:29:
         0c:b9:ac:ec:49:f7:cf:93:e6:4f:bf:46:98:06:5e:2d:cc:46:
         84:da:04:78:87:2a:6e:36:76:2d:31:47:2d:fb:da:65:22:28:
         a8:c5:56:48:30:ff:46:13:c8:38:f1:d8:76:54:15:6e:70:4d:
         8f:fa:bc:98:39:0e:45:5e:07:33:24:db:34:c7:3b:7b:c1:5a:
         96:0a:cf:81
-----BEGIN CERTIFICATE-----
MIIERjCCAy6gAwIBAgIBPjANBgkqhkiG9w0BAQUFADBXMQswCQYDVQQGEwJVUzEP
MA0GA1UECgwGR29vZ2xlMRMwEQYDVQQLDApFbnRlcnByaXNlMSIwIAYDVQQDDBlF
bnRlcnByaXNlIFN1Ym9yZGluYXRlIENBMB4XDTIxMTIxNDIwMjAzN1oXDTI3MDYw
NjIwMjAzN1owVzELMAkGA1UEBhMCVVMxDzANBgNVBAoMBkdvb2dsZTETMBEGA1UE
CwwKRW50ZXJwcmlzZTEiMCAGA1UEAwwZbG9jYWxob3N0LmVzb2RlbW9hcHAyLmNv
bTCCASIwDQYJKoZIhvcNAQEBBQADggEPADCCAQoCggEBAL8V391l3mIYcHgLb2Tk
QpstCaaMsYboKeQQoPYWRv88EhYmi83sGTOTPvqVVWFjSDzLDDzCQ7jlX0s4oH6w
Qy4AQz7IZzXs81uB5I0Ls63X9M+ljcoKBmNEGfpa2YrtE/rAFjgPHDqkPokD9RrR
jq0pUSfbn6j3xedgiWNtTmWFA1TyhDd5jZqqB+zO6NW7U25jWu0YAEPQ0bPi9z4s
6ZR22dOJ31uojeElMA0qtSJe7M8dZz++vZcGftpAjGM0c4bNN8eEsFnCxiHVqTYI
PpZ6R/1ROxC4PS5Kz+o1p5QnDWFZGSVIJb43GN+S4d194D+WZjG22XJgx59DYTtL
Mh8CAwEAAaOCARswggEXMA4GA1UdDwEB/wQEAwIHgDAJBgNVHRMEAjAAMBMGA1Ud
JQQMMAoGCCsGAQUFBwMBMB0GA1UdDgQWBBThoWjmErw6AoOJ0UT30Qsnn/2YyDAf
BgNVHSMEGDAWgBS/4RzwIkiP/DvPXdntrohwId/dhjBEBggrBgEFBQcBAQQ4MDYw
NAYIKwYBBQUHMAKGKGh0dHA6Ly9wa2kuZXNvZGVtb2FwcDIuY29tL2NhL3Rscy1j
YS5jZXIwOQYDVR0fBDIwMDAuoCygKoYoaHR0cDovL3BraS5lc29kZW1vYXBwMi5j
b20vY2EvdGxzLWNhLmNybDAkBgNVHREEHTAbghlsb2NhbGhvc3QuZXNvZGVtb2Fw
cDIuY29tMA0GCSqGSIb3DQEBBQUAA4IBAQCWJw8JA2v5XqmB15UfvvSkAM06n+dU
BkNgLXQ6WVvT82X1OdU6PG7CbwsWPoi3a54+He4KQNeLKh+iPRTT56N+Tb2y5Zdi
2Etm053O1hDw+nICA3BPh+JPGitDn3+SJPeh/51cjDGWX3yutCZCE08MjBkJwvjv
x700USMMWFa2Ru+OMsy5CTb3KHi3Rme7lYN0GeM9BX/QVVS/a3dqHi9pZGQjVAZI
xFfUuiXacggj4zlm9CkMuazsSffPk+ZPv0aYBl4tzEaE2gR4hypuNnYtMUct+9pl
IiioxVZIMP9GE8g48dh2VBVucE2P+ryYOQ5FXgczJNs0xzt7wVqWCs+B
-----END CERTIFICATE-----
